; Function Attrs: mustprogress uwtable
define void @_ZN3nix6getArgERKNSt7__cxx1112basic_stringIcSt11char_traitsIcESaIcEEERSt14_List_iteratorIS5_ERKS9_(ptr dead_on_unwind noalias writable sret(%"class.std::__cxx11::basic_string") align 8 %0, ptr noundef nonnull align 8 dereferenceable(32) %1, ptr nocapture noundef nonnull align 8 dereferenceable(8) %2, ptr nocapture noundef nonnull readonly align 8 dereferenceable(8) %3) local_unnamed_addr #5 personality ptr @__gxx_personality_v0 {
  %5 = alloca %"class.std::__cxx11::basic_string", align 8
  %6 = alloca %"class.std::allocator", align 1
  %7 = load ptr, ptr %2, align 8
  %8 = load ptr, ptr %7, align 8
  store ptr %8, ptr %2, align 8
  %9 = load ptr, ptr %3, align 8
  %10 = icmp eq ptr %8, %9
  br i1 %10, label %11, label %19

11:                                               ; preds = %4
  %12 = tail call ptr @__cxa_allocate_exception(i64 376) #30
  call void @_ZNSaIcEC1Ev(ptr noundef nonnull align 1 dereferenceable(1) %6) #30
  invoke void @_ZNSt7__cxx1112basic_stringIcSt11char_traitsIcESaIcEEC2IS3_EEPKcRKS3_(ptr noundef nonnull align 8 dereferenceable(32) %5, ptr noundef nonnull @.str.14, ptr noundef nonnull align 1 dereferenceable(1) %6)
          to label %13 unwind label %.thread

13:                                               ; preds = %11
  invoke void @_ZN3nix10UsageErrorCI2NS_9BaseErrorEIJNSt7__cxx1112basic_stringIcSt11char_traitsIcESaIcEEEEEERKS6_DpRKT_(ptr noundef nonnull align 8 dereferenceable(376) %12, ptr noundef nonnull align 8 dereferenceable(32) %5, ptr noundef nonnull align 8 dereferenceable(32) %1)
          to label %14 unwind label %16

14:                                               ; preds = %13
  invoke void @__cxa_throw(ptr nonnull %12, ptr nonnull @_ZTIN3nix10UsageErrorE, ptr nonnull @_ZN3nix10UsageErrorD2Ev) #31
          to label %22 unwind label %16

.thread:                                          ; preds = %11
  %15 = landingpad { ptr, i32 }
          cleanup
  call void @_ZNSaIcED1Ev(ptr noundef nonnull align 1 dereferenceable(1) %6) #30
  br label %18

16:                                               ; preds = %13, %14
  %.0 = phi i1 [ false, %14 ], [ true, %13 ]
  %17 = landingpad { ptr, i32 }
          cleanup
  call void @_ZNSt7__cxx1112basic_stringIcSt11char_traitsIcESaIcEED2Ev(ptr noundef nonnull align 8 dereferenceable(32) %5) #30
  call void @_ZNSaIcED1Ev(ptr noundef nonnull align 1 dereferenceable(1) %6) #30
  br i1 %.0, label %18, label %21

18:                                               ; preds = %.thread, %16
  %.pn13 = phi { ptr, i32 } [ %15, %.thread ], [ %17, %16 ]
  call void @__cxa_free_exception(ptr %12) #30
  br label %21

19:                                               ; preds = %4
  %20 = getelementptr inbounds i8, ptr %8, i64 16
  tail call void @_ZNSt7__cxx1112basic_stringIcSt11char_traitsIcESaIcEEC2ERKS4_(ptr noundef nonnull align 8 dereferenceable(32) %0, ptr noundef nonnull align 8 dereferenceable(32) %20)
  ret void

21:                                               ; preds = %16, %18
  %.pn12 = phi { ptr, i32 } [ %17, %16 ], [ %.pn13, %18 ]
  resume { ptr, i32 } %.pn12

22:                                               ; preds = %14
  unreachable
}